target datalayout = "e-m:e-p270:32:32-p271:32:32-p272:64:64-i64:64-i128:128-f80:128-n8:16:32:64-S128"
target triple = "x86_64-pc-linux-gnu"

%"class.cvc5::internal::Integer" = type { %class.__gmp_expr }
%class.__gmp_expr = type { [1 x %struct.__mpz_struct] }
%struct.__mpz_struct = type { i32, i32, ptr }
%"class.cvc5::internal::BitVector" = type { i32, %"class.cvc5::internal::Integer" }
%"class.std::__cxx11::basic_string" = type { %"struct.std::__cxx11::basic_string<char>::_Alloc_hider", i64, %union.anon }
%"struct.std::__cxx11::basic_string<char>::_Alloc_hider" = type { ptr }
%union.anon = type { i64, [8 x i8] }

; Function Attrs: inlinehint mustprogress uwtable
define available_externally void @__gmpz_neg(ptr noundef %0, ptr noundef %1) #8 {
  %3 = alloca ptr, align 8
  %4 = alloca ptr, align 8
  store ptr %0, ptr %3, align 8, !tbaa !47
  store ptr %1, ptr %4, align 8, !tbaa !47
  %5 = load ptr, ptr %3, align 8, !tbaa !47
  %6 = load ptr, ptr %4, align 8, !tbaa !47
  %7 = icmp ne ptr %5, %6
  br i1 %7, label %8, label %11

8:                                                ; preds = %2
  %9 = load ptr, ptr %3, align 8, !tbaa !47
  %10 = load ptr, ptr %4, align 8, !tbaa !47
  call void @__gmpz_set(ptr noundef %9, ptr noundef %10)
  br label %11

11:                                               ; preds = %8, %2
  %12 = load ptr, ptr %3, align 8, !tbaa !47
  %13 = getelementptr inbounds nuw %struct.__mpz_struct, ptr %12, i32 0, i32 1
  %14 = load i32, ptr %13, align 4, !tbaa !48
  %15 = sub nsw i32 0, %14
  %16 = load ptr, ptr %3, align 8, !tbaa !47
  %17 = getelementptr inbounds nuw %struct.__mpz_struct, ptr %16, i32 0, i32 1
  store i32 %15, ptr %17, align 4, !tbaa !48
  ret void
}

; Function Attrs: mustprogress uwtable
define linkonce_odr hidden void @_ZN10__gmp_exprIA1_12__mpz_structS1_E7init_uiEm(ptr noundef nonnull align 8 dereferenceable(16) %0, i64 noundef %1) #4 comdat align 2 {
  %3 = alloca ptr, align 8
  %4 = alloca i64, align 8
  store ptr %0, ptr %3, align 8, !tbaa !45
  store i64 %1, ptr %4, align 8, !tbaa !26
  %5 = load ptr, ptr %3, align 8
  %6 = load i64, ptr %4, align 8, !tbaa !26
  %7 = icmp eq i64 %6, 0
  %8 = call i1 @llvm.is.constant.i1(i1 %7)
  br i1 %8, label %9, label %15

9:                                                ; preds = %2
  %10 = load i64, ptr %4, align 8, !tbaa !26
  %11 = icmp eq i64 %10, 0
  br i1 %11, label %12, label %15

12:                                               ; preds = %9
  %13 = getelementptr inbounds nuw %class.__gmp_expr, ptr %5, i32 0, i32 0
  %14 = getelementptr inbounds [1 x %struct.__mpz_struct], ptr %13, i64 0, i64 0
  call void @__gmpz_init(ptr noundef %14) #3
  br label %19

15:                                               ; preds = %9, %2
  %16 = getelementptr inbounds nuw %class.__gmp_expr, ptr %5, i32 0, i32 0
  %17 = getelementptr inbounds [1 x %struct.__mpz_struct], ptr %16, i64 0, i64 0
  %18 = load i64, ptr %4, align 8, !tbaa !26
  call void @__gmpz_init_set_ui(ptr noundef %17, i64 noundef %18)
  br label %19

19:                                               ; preds = %15, %12
  ret void
}

; Function Attrs: mustprogress uwtable
define linkonce_odr hidden void @_ZN10__gmp_exprIA1_12__mpz_structS1_E7init_siEl(ptr noundef nonnull align 8 dereferenceable(16) %0, i64 noundef %1) #4 comdat align 2 {
  %3 = alloca ptr, align 8
  %4 = alloca i64, align 8
  store ptr %0, ptr %3, align 8, !tbaa !45
  store i64 %1, ptr %4, align 8, !tbaa !26
  %5 = load ptr, ptr %3, align 8
  %6 = load i64, ptr %4, align 8, !tbaa !26
  %7 = icmp sge i64 %6, 0
  %8 = call i1 @llvm.is.constant.i1(i1 %7)
  br i1 %8, label %9, label %14

9:                                                ; preds = %2
  %10 = load i64, ptr %4, align 8, !tbaa !26
  %11 = icmp sge i64 %10, 0
  br i1 %11, label %12, label %14

12:                                               ; preds = %9
  %13 = load i64, ptr %4, align 8, !tbaa !26
  call void @_ZN10__gmp_exprIA1_12__mpz_structS1_E7init_uiEm(ptr noundef nonnull align 8 dereferenceable(16) %5, i64 noundef %13)
  br label %33

14:                                               ; preds = %9, %2
  %15 = load i64, ptr %4, align 8, !tbaa !26
  %16 = icmp sle i64 %15, 0
  %17 = call i1 @llvm.is.constant.i1(i1 %16)
  br i1 %17, label %18, label %28

18:                                               ; preds = %14
  %19 = load i64, ptr %4, align 8, !tbaa !26
  %20 = icmp sle i64 %19, 0
  br i1 %20, label %21, label %28

21:                                               ; preds = %18
  %22 = load i64, ptr %4, align 8, !tbaa !26
  %23 = sub i64 0, %22
  call void @_ZN10__gmp_exprIA1_12__mpz_structS1_E7init_uiEm(ptr noundef nonnull align 8 dereferenceable(16) %5, i64 noundef %23)
  %24 = getelementptr inbounds nuw %class.__gmp_expr, ptr %5, i32 0, i32 0
  %25 = getelementptr inbounds [1 x %struct.__mpz_struct], ptr %24, i64 0, i64 0
  %26 = getelementptr inbounds nuw %class.__gmp_expr, ptr %5, i32 0, i32 0
  %27 = getelementptr inbounds [1 x %struct.__mpz_struct], ptr %26, i64 0, i64 0
  call void @__gmpz_neg(ptr noundef %25, ptr noundef %27)
  br label %32

28:                                               ; preds = %18, %14
  %29 = getelementptr inbounds nuw %class.__gmp_expr, ptr %5, i32 0, i32 0
  %30 = getelementptr inbounds [1 x %struct.__mpz_struct], ptr %29, i64 0, i64 0
  %31 = load i64, ptr %4, align 8, !tbaa !26
  call void @__gmpz_init_set_si(ptr noundef %30, i64 noundef %31)
  br label %32

32:                                               ; preds = %28, %21
  br label %33

33:                                               ; preds = %32, %12
  ret void
}

; Function Attrs: mustprogress nounwind uwtable
define linkonce_odr hidden void @_ZN10__gmp_exprIA1_12__mpz_structS1_ED2Ev(ptr noundef nonnull align 8 dereferenceable(16) %0) unnamed_addr #6 comdat align 2 personality ptr @__gxx_personality_v0 {
  %2 = alloca ptr, align 8
  store ptr %0, ptr %2, align 8, !tbaa !45
  %3 = load ptr, ptr %2, align 8
  %4 = getelementptr inbounds nuw %class.__gmp_expr, ptr %3, i32 0, i32 0
  %5 = getelementptr inbounds [1 x %struct.__mpz_struct], ptr %4, i64 0, i64 0
  invoke void @__gmpz_clear(ptr noundef %5)
          to label %6 unwind label %7

6:                                                ; preds = %1
  ret void

7:                                                ; preds = %1
  %8 = landingpad { ptr, i32 }
          catch ptr null
  %9 = extractvalue { ptr, i32 } %8, 0
  call void @__clang_call_terminate(ptr %9) #15
  unreachable
}

; Function Attrs: mustprogress uwtable
define linkonce_odr hidden void @_ZN10__gmp_exprIA1_12__mpz_structS1_EC2Ei(ptr noundef nonnull align 8 dereferenceable(16) %0, i32 noundef %1) unnamed_addr #4 comdat align 2 {
  %3 = alloca ptr, align 8
  %4 = alloca i32, align 4
  store ptr %0, ptr %3, align 8, !tbaa !45
  store i32 %1, ptr %4, align 4, !tbaa !10
  %5 = load ptr, ptr %3, align 8
  %6 = load i32, ptr %4, align 4, !tbaa !10
  %7 = sext i32 %6 to i64
  call void @_ZN10__gmp_exprIA1_12__mpz_structS1_E7init_siEl(ptr noundef nonnull align 8 dereferenceable(16) %5, i64 noundef %7)
  ret void
}

; Function Attrs: mustprogress nounwind uwtable
define available_externally noundef i64 @_ZNKSt7__cxx1112basic_stringIcSt11char_traitsIcESaIcEE4sizeEv(ptr noundef nonnull align 8 dereferenceable(32) %0) #6 align 2 {
  %2 = alloca ptr, align 8
  store ptr %0, ptr %2, align 8, !tbaa !8
  %3 = load ptr, ptr %2, align 8
  %4 = getelementptr inbounds nuw %"class.std::__cxx11::basic_string", ptr %3, i32 0, i32 1
  %5 = load i64, ptr %4, align 8, !tbaa !18
  ret i64 %5
}

; Function Attrs: mustprogress nounwind uwtable
define linkonce_odr hidden void @_ZN4cvc58internal7IntegerD2Ev(ptr noundef nonnull align 8 dereferenceable(16) %0) unnamed_addr #6 comdat align 2 {
  %2 = alloca ptr, align 8
  store ptr %0, ptr %2, align 8, !tbaa !16
  %3 = load ptr, ptr %2, align 8
  %4 = getelementptr inbounds nuw %"class.cvc5::internal::Integer", ptr %3, i32 0, i32 0
  call void @_ZN10__gmp_exprIA1_12__mpz_structS1_ED2Ev(ptr noundef nonnull align 8 dereferenceable(16) %4) #3
  ret void
}

; Function Attrs: mustprogress uwtable
define linkonce_odr hidden void @_ZN4cvc58internal7IntegerC2Ev(ptr noundef nonnull align 8 dereferenceable(16) %0) unnamed_addr #4 comdat align 2 {
  %2 = alloca ptr, align 8
  store ptr %0, ptr %2, align 8, !tbaa !16
  %3 = load ptr, ptr %2, align 8
  %4 = getelementptr inbounds nuw %"class.cvc5::internal::Integer", ptr %3, i32 0, i32 0
  call void @_ZN10__gmp_exprIA1_12__mpz_structS1_EC2Ei(ptr noundef nonnull align 8 dereferenceable(16) %4, i32 noundef 0)
  ret void
}

; Function Attrs: mustprogress uwtable
define hidden void @_ZN4cvc58internal9BitVectorC2ERKNSt7__cxx1112basic_stringIcSt11char_traitsIcESaIcEEEj(ptr noundef nonnull align 8 dereferenceable(24) %0, ptr noundef nonnull align 8 dereferenceable(32) %1, i32 noundef %2) unnamed_addr #4 align 2 personality ptr @__gxx_personality_v0 {
  %4 = alloca ptr, align 8
  %5 = alloca ptr, align 8
  %6 = alloca i32, align 4
  %7 = alloca %"class.cvc5::internal::Integer", align 8
  %8 = alloca ptr, align 8
  %9 = alloca i32, align 4
  store ptr %0, ptr %4, align 8, !tbaa !3
  store ptr %1, ptr %5, align 8, !tbaa !8
  store i32 %2, ptr %6, align 4, !tbaa !10
  %10 = load ptr, ptr %4, align 8
  %11 = getelementptr inbounds nuw %"class.cvc5::internal::BitVector", ptr %10, i32 0, i32 1
  call void @_ZN4cvc58internal7IntegerC2Ev(ptr noundef nonnull align 8 dereferenceable(16) %11)
  call void @llvm.lifetime.start.p0(i64 16, ptr %7) #3
  %12 = load ptr, ptr %5, align 8, !tbaa !8
  %13 = load i32, ptr %6, align 4, !tbaa !10
  invoke void @_ZN4cvc58internal7IntegerC1ERKNSt7__cxx1112basic_stringIcSt11char_traitsIcESaIcEEEj(ptr noundef nonnull align 8 dereferenceable(16) %7, ptr noundef nonnull align 8 dereferenceable(32) %12, i32 noundef %13)
          to label %14 unwind label %19

14:                                               ; preds = %3
  %15 = getelementptr inbounds nuw %"class.cvc5::internal::BitVector", ptr %10, i32 0, i32 1
  %16 = invoke noundef nonnull align 8 dereferenceable(16) ptr @_ZN4cvc58internal7IntegeraSERKS1_(ptr noundef nonnull align 8 dereferenceable(16) %15, ptr noundef nonnull align 8 dereferenceable(16) %7)
          to label %17 unwind label %23

17:                                               ; preds = %14
  call void @_ZN4cvc58internal7IntegerD2Ev(ptr noundef nonnull align 8 dereferenceable(16) %7) #3
  call void @llvm.lifetime.end.p0(i64 16, ptr %7) #3
  %18 = load i32, ptr %6, align 4, !tbaa !10
  switch i32 %18, label %44 [
    i32 10, label %28
    i32 16, label %38
  ]

19:                                               ; preds = %3
  %20 = landingpad { ptr, i32 }
          cleanup
  %21 = extractvalue { ptr, i32 } %20, 0
  store ptr %21, ptr %8, align 8
  %22 = extractvalue { ptr, i32 } %20, 1
  store i32 %22, ptr %9, align 4
  br label %27

23:                                               ; preds = %14
  %24 = landingpad { ptr, i32 }
          cleanup
  %25 = extractvalue { ptr, i32 } %24, 0
  store ptr %25, ptr %8, align 8
  %26 = extractvalue { ptr, i32 } %24, 1
  store i32 %26, ptr %9, align 4
  call void @_ZN4cvc58internal7IntegerD2Ev(ptr noundef nonnull align 8 dereferenceable(16) %7) #3
  br label %27

27:                                               ; preds = %23, %19
  call void @llvm.lifetime.end.p0(i64 16, ptr %7) #3
  br label %50

28:                                               ; preds = %17
  %29 = getelementptr inbounds nuw %"class.cvc5::internal::BitVector", ptr %10, i32 0, i32 1
  %30 = invoke noundef i64 @_ZNK4cvc58internal7Integer6lengthEv(ptr noundef nonnull align 8 dereferenceable(16) %29)
          to label %31 unwind label %34

31:                                               ; preds = %28
  %32 = trunc i64 %30 to i32
  %33 = getelementptr inbounds nuw %"class.cvc5::internal::BitVector", ptr %10, i32 0, i32 0
  store i32 %32, ptr %33, align 8, !tbaa !12
  br label %49

34:                                               ; preds = %28
  %35 = landingpad { ptr, i32 }
          cleanup
  %36 = extractvalue { ptr, i32 } %35, 0
  store ptr %36, ptr %8, align 8
  %37 = extractvalue { ptr, i32 } %35, 1
  store i32 %37, ptr %9, align 4
  br label %50

38:                                               ; preds = %17
  %39 = load ptr, ptr %5, align 8, !tbaa !8
  %40 = call noundef i64 @_ZNKSt7__cxx1112basic_stringIcSt11char_traitsIcESaIcEE4sizeEv(ptr noundef nonnull align 8 dereferenceable(32) %39) #3
  %41 = mul i64 %40, 4
  %42 = trunc i64 %41 to i32
  %43 = getelementptr inbounds nuw %"class.cvc5::internal::BitVector", ptr %10, i32 0, i32 0
  store i32 %42, ptr %43, align 8, !tbaa !12
  br label %49

44:                                               ; preds = %17
  %45 = load ptr, ptr %5, align 8, !tbaa !8
  %46 = call noundef i64 @_ZNKSt7__cxx1112basic_stringIcSt11char_traitsIcESaIcEE4sizeEv(ptr noundef nonnull align 8 dereferenceable(32) %45) #3
  %47 = trunc i64 %46 to i32
  %48 = getelementptr inbounds nuw %"class.cvc5::internal::BitVector", ptr %10, i32 0, i32 0
  store i32 %47, ptr %48, align 8, !tbaa !12
  br label %49

49:                                               ; preds = %44, %38, %31
  ret void

50:                                               ; preds = %34, %27
  call void @_ZN4cvc58internal7IntegerD2Ev(ptr noundef nonnull align 8 dereferenceable(16) %11) #3
  br label %51

51:                                               ; preds = %50
  %52 = load ptr, ptr %8, align 8
  %53 = load i32, ptr %9, align 4
  %54 = insertvalue { ptr, i32 } poison, ptr %52, 0
  %55 = insertvalue { ptr, i32 } %54, i32 %53, 1
  resume { ptr, i32 } %55
}