; Function Attrs: mustprogress uwtable
define hidden void @_ZN4cvc58internal9BitVectorC2ERKNSt7__cxx1112basic_stringIcSt11char_traitsIcESaIcEEEj(ptr noundef nonnull align 8 dereferenceable(24) %0, ptr noundef nonnull align 8 dereferenceable(32) %1, i32 noundef %2) unnamed_addr #3 align 2 personality ptr @__gxx_personality_v0 {
  %4 = alloca %"class.cvc5::internal::Integer", align 8
  %5 = getelementptr inbounds nuw i8, ptr %0, i64 8
  tail call void @__gmpz_init(ptr noundef nonnull align 8 dereferenceable(16) %5) #16
  call void @llvm.lifetime.start.p0(i64 16, ptr nonnull %4) #16
  invoke void @_ZN4cvc58internal7IntegerC1ERKNSt7__cxx1112basic_stringIcSt11char_traitsIcESaIcEEEj(ptr noundef nonnull align 8 dereferenceable(16) %4, ptr noundef nonnull align 8 dereferenceable(32) %1, i32 noundef %2)
          to label %6 unwind label %12

6:                                                ; preds = %3
  %7 = invoke noundef nonnull align 8 dereferenceable(16) ptr @_ZN4cvc58internal7IntegeraSERKS1_(ptr noundef nonnull align 8 dereferenceable(16) %5, ptr noundef nonnull align 8 dereferenceable(16) %4)
          to label %8 unwind label %14

8:                                                ; preds = %6
  invoke void @__gmpz_clear(ptr noundef nonnull align 8 dereferenceable(16) %4)
          to label %_ZN4cvc58internal7IntegerD2Ev.exit unwind label %9

9:                                                ; preds = %8
  %10 = landingpad { ptr, i32 }
          catch ptr null
  %11 = extractvalue { ptr, i32 } %10, 0
  call void @__clang_call_terminate(ptr %11) #17
  unreachable

_ZN4cvc58internal7IntegerD2Ev.exit:               ; preds = %8
  call void @llvm.lifetime.end.p0(i64 16, ptr nonnull %4) #16
  switch i32 %2, label %29 [
    i32 10, label %19
    i32 16, label %25
  ]

12:                                               ; preds = %3
  %13 = landingpad { ptr, i32 }
          cleanup
  br label %_ZN4cvc58internal7IntegerD2Ev.exit12

14:                                               ; preds = %6
  %15 = landingpad { ptr, i32 }
          cleanup
  invoke void @__gmpz_clear(ptr noundef nonnull align 8 dereferenceable(16) %4)
          to label %_ZN4cvc58internal7IntegerD2Ev.exit12 unwind label %16

16:                                               ; preds = %14
  %17 = landingpad { ptr, i32 }
          catch ptr null
  %18 = extractvalue { ptr, i32 } %17, 0
  call void @__clang_call_terminate(ptr %18) #17
  unreachable

_ZN4cvc58internal7IntegerD2Ev.exit12:             ; preds = %14, %12
  %.pn = phi { ptr, i32 } [ %13, %12 ], [ %15, %14 ]
  call void @llvm.lifetime.end.p0(i64 16, ptr nonnull %4) #16
  br label %34

19:                                               ; preds = %_ZN4cvc58internal7IntegerD2Ev.exit
  %20 = invoke noundef i64 @_ZNK4cvc58internal7Integer6lengthEv(ptr noundef nonnull align 8 dereferenceable(16) %5)
          to label %21 unwind label %23

21:                                               ; preds = %19
  %22 = trunc i64 %20 to i32
  br label %33

23:                                               ; preds = %19
  %24 = landingpad { ptr, i32 }
          cleanup
  br label %34

25:                                               ; preds = %_ZN4cvc58internal7IntegerD2Ev.exit
  %26 = getelementptr inbounds nuw i8, ptr %1, i64 8
  %27 = load i64, ptr %26, align 8, !tbaa !3
  %.tr = trunc i64 %27 to i32
  %28 = shl i32 %.tr, 2
  br label %33

29:                                               ; preds = %_ZN4cvc58internal7IntegerD2Ev.exit
  %30 = getelementptr inbounds nuw i8, ptr %1, i64 8
  %31 = load i64, ptr %30, align 8, !tbaa !3
  %32 = trunc i64 %31 to i32
  br label %33

33:                                               ; preds = %29, %25, %21
  %.sink = phi i32 [ %32, %29 ], [ %28, %25 ], [ %22, %21 ]
  store i32 %.sink, ptr %0, align 8, !tbaa !11
  ret void

34:                                               ; preds = %23, %_ZN4cvc58internal7IntegerD2Ev.exit12
  %.pn10 = phi { ptr, i32 } [ %24, %23 ], [ %.pn, %_ZN4cvc58internal7IntegerD2Ev.exit12 ]
  invoke void @__gmpz_clear(ptr noundef nonnull align 8 dereferenceable(16) %5)
          to label %_ZN4cvc58internal7IntegerD2Ev.exit13 unwind label %35

35:                                               ; preds = %34
  %36 = landingpad { ptr, i32 }
          catch ptr null
  %37 = extractvalue { ptr, i32 } %36, 0
  call void @__clang_call_terminate(ptr %37) #17
  unreachable

_ZN4cvc58internal7IntegerD2Ev.exit13:             ; preds = %34
  resume { ptr, i32 } %.pn10
}